; ModuleID = 'main.7rcbfp3g-cgu.0'
source_filename = "main.7rcbfp3g-cgu.0"
target datalayout = "e-m:e-p270:32:32-p271:32:32-p272:64:64-i64:64-f80:128-n8:16:32:64-S128"
target triple = "x86_64-unknown-linux-gnu"

%"std::fmt::Formatter" = type { [0 x i64], { i64, i64 }, [0 x i64], { i64, i64 }, [0 x i64], { {}*, [3 x i64]* }, [0 x i32], i32, [0 x i32], i32, [0 x i8], i8, [7 x i8] }
%"core::fmt::Opaque" = type {}
%"std::fmt::Arguments" = type { [0 x i64], { [0 x { [0 x i8]*, i64 }]*, i64 }, [0 x i64], { i64*, i64 }, [0 x i64], { [0 x { i8*, i64* }]*, i64 }, [0 x i64] }
%"std::panic::Location" = type { [0 x i64], { [0 x i8]*, i64 }, [0 x i32], i32, [0 x i32], i32, [0 x i32] }
%"unwind::libunwind::_Unwind_Exception" = type { [0 x i64], i64, [0 x i64], void (i32, %"unwind::libunwind::_Unwind_Exception"*)*, [0 x i64], [6 x i64], [0 x i64] }
%"unwind::libunwind::_Unwind_Context" = type { [0 x i8] }

@vtable.0 = private unnamed_addr constant { void (i64**)*, i64, i64, i32 (i64**)*, i32 (i64**)*, i32 (i64**)* } { void (i64**)* @"_ZN4core3ptr85drop_in_place$LT$std..rt..lang_start$LT$$LP$$RP$$GT$..$u7b$$u7b$closure$u7d$$u7d$$GT$17he9c53e06c5d4b711E", i64 8, i64 8, i32 (i64**)* @"_ZN3std2rt10lang_start28_$u7b$$u7b$closure$u7d$$u7d$17hce1a25dfefc4f916E", i32 (i64**)* @"_ZN3std2rt10lang_start28_$u7b$$u7b$closure$u7d$$u7d$17hce1a25dfefc4f916E", i32 (i64**)* @"_ZN4core3ops8function6FnOnce40call_once$u7b$$u7b$vtable.shim$u7d$$u7d$17h427fda46e047ab3fE" }, align 8
@alloc1 = private unnamed_addr constant <{ [16 x i8] }> <{ [16 x i8] c"El resultado es " }>, align 1
@alloc3 = private unnamed_addr constant <{ [1 x i8] }> <{ [1 x i8] c"\0A" }>, align 1
@alloc2 = private unnamed_addr constant <{ i8*, [8 x i8], i8*, [8 x i8] }> <{ i8* getelementptr inbounds (<{ [16 x i8] }>, <{ [16 x i8] }>* @alloc1, i32 0, i32 0, i32 0), [8 x i8] c"\10\00\00\00\00\00\00\00", i8* getelementptr inbounds (<{ [1 x i8] }>, <{ [1 x i8] }>* @alloc3, i32 0, i32 0, i32 0), [8 x i8] c"\01\00\00\00\00\00\00\00" }>, align 8
@alloc29 = private unnamed_addr constant <{ [7 x i8] }> <{ [7 x i8] c"main.rs" }>, align 1
@alloc30 = private unnamed_addr constant <{ i8*, [16 x i8] }> <{ i8* getelementptr inbounds (<{ [7 x i8] }>, <{ [7 x i8] }>* @alloc29, i32 0, i32 0, i32 0), [16 x i8] c"\07\00\00\00\00\00\00\00\0B\00\00\00\05\00\00\00" }>, align 8
@str.1 = internal constant [28 x i8] c"attempt to add with overflow"

; std::sys_common::backtrace::__rust_begin_short_backtrace
; Function Attrs: noinline nonlazybind uwtable
define internal void @_ZN3std10sys_common9backtrace28__rust_begin_short_backtrace17hf66d8c7a932d6f71E(void ()* nonnull %f) unnamed_addr #0 personality i32 (i32, i32, i64, %"unwind::libunwind::_Unwind_Exception"*, %"unwind::libunwind::_Unwind_Context"*)* @rust_eh_personality {
start:
  %0 = alloca { i8*, i32 }, align 8
; call core::ops::function::FnOnce::call_once
  call void @_ZN4core3ops8function6FnOnce9call_once17hfa3234c194bf7715E(void ()* nonnull %f)
  br label %bb1

bb1:                                              ; preds = %start
; invoke core::hint::black_box
  invoke void @_ZN4core4hint9black_box17hd3ed79ea75a8b07eE()
          to label %bb2 unwind label %cleanup

bb2:                                              ; preds = %bb1
  ret void

bb3:                                              ; preds = %cleanup
  br label %bb4

bb4:                                              ; preds = %bb3
  %1 = bitcast { i8*, i32 }* %0 to i8**
  %2 = load i8*, i8** %1, align 8
  %3 = getelementptr inbounds { i8*, i32 }, { i8*, i32 }* %0, i32 0, i32 1
  %4 = load i32, i32* %3, align 8
  %5 = insertvalue { i8*, i32 } undef, i8* %2, 0
  %6 = insertvalue { i8*, i32 } %5, i32 %4, 1
  resume { i8*, i32 } %6

cleanup:                                          ; preds = %bb1
  %7 = landingpad { i8*, i32 }
          cleanup
  %8 = extractvalue { i8*, i32 } %7, 0
  %9 = extractvalue { i8*, i32 } %7, 1
  %10 = getelementptr inbounds { i8*, i32 }, { i8*, i32 }* %0, i32 0, i32 0
  store i8* %8, i8** %10, align 8
  %11 = getelementptr inbounds { i8*, i32 }, { i8*, i32 }* %0, i32 0, i32 1
  store i32 %9, i32* %11, align 8
  br label %bb3
}

; std::rt::lang_start
; Function Attrs: nonlazybind uwtable
define hidden i64 @_ZN3std2rt10lang_start17h358cf2a9c1254586E(void ()* nonnull %main, i64 %argc, i8** %argv) unnamed_addr #1 {
start:
  %_7 = alloca i64*, align 8
  %0 = bitcast i64** %_7 to void ()**
  store void ()* %main, void ()** %0, align 8
  %_4.0 = bitcast i64** %_7 to {}*
; call std::rt::lang_start_internal
  %1 = call i64 @_ZN3std2rt19lang_start_internal17hab5a8a909af4f90eE({}* nonnull align 1 %_4.0, [3 x i64]* align 8 dereferenceable(24) bitcast ({ void (i64**)*, i64, i64, i32 (i64**)*, i32 (i64**)*, i32 (i64**)* }* @vtable.0 to [3 x i64]*), i64 %argc, i8** %argv)
  br label %bb1

bb1:                                              ; preds = %start
  ret i64 %1
}

; std::rt::lang_start::{{closure}}
; Function Attrs: inlinehint nonlazybind uwtable
define internal i32 @"_ZN3std2rt10lang_start28_$u7b$$u7b$closure$u7d$$u7d$17hce1a25dfefc4f916E"(i64** align 8 dereferenceable(8) %_1) unnamed_addr #2 {
start:
  %0 = bitcast i64** %_1 to void ()**
  %_3 = load void ()*, void ()** %0, align 8, !nonnull !3
; call std::sys_common::backtrace::__rust_begin_short_backtrace
  call void @_ZN3std10sys_common9backtrace28__rust_begin_short_backtrace17hf66d8c7a932d6f71E(void ()* nonnull %_3)
  br label %bb1

bb1:                                              ; preds = %start
; call <() as std::process::Termination>::report
  %1 = call i32 @"_ZN54_$LT$$LP$$RP$$u20$as$u20$std..process..Termination$GT$6report17h748f98991ea520fbE"()
  br label %bb2

bb2:                                              ; preds = %bb1
  ret i32 %1
}

; std::sys::unix::process::process_common::ExitCode::as_i32
; Function Attrs: inlinehint nonlazybind uwtable
define internal i32 @_ZN3std3sys4unix7process14process_common8ExitCode6as_i3217h1fd9089b36ba6b87E(i8* align 1 dereferenceable(1) %self) unnamed_addr #2 {
start:
  %_2 = load i8, i8* %self, align 1
  %0 = zext i8 %_2 to i32
  ret i32 %0
}

; core::fmt::ArgumentV1::new
; Function Attrs: nonlazybind uwtable
define internal { i8*, i64* } @_ZN4core3fmt10ArgumentV13new17h27664d64daba7afaE(i32* align 4 dereferenceable(4) %x, i1 (i32*, %"std::fmt::Formatter"*)* nonnull %f) unnamed_addr #1 {
start:
  %0 = alloca %"core::fmt::Opaque"*, align 8
  %1 = alloca i1 (%"core::fmt::Opaque"*, %"std::fmt::Formatter"*)*, align 8
  %2 = alloca { i8*, i64* }, align 8
  %3 = bitcast i1 (i32*, %"std::fmt::Formatter"*)* %f to i1 (%"core::fmt::Opaque"*, %"std::fmt::Formatter"*)*
  store i1 (%"core::fmt::Opaque"*, %"std::fmt::Formatter"*)* %3, i1 (%"core::fmt::Opaque"*, %"std::fmt::Formatter"*)** %1, align 8
  %_3 = load i1 (%"core::fmt::Opaque"*, %"std::fmt::Formatter"*)*, i1 (%"core::fmt::Opaque"*, %"std::fmt::Formatter"*)** %1, align 8, !nonnull !3
  br label %bb1

bb1:                                              ; preds = %start
  %4 = bitcast i32* %x to %"core::fmt::Opaque"*
  store %"core::fmt::Opaque"* %4, %"core::fmt::Opaque"** %0, align 8
  %_5 = load %"core::fmt::Opaque"*, %"core::fmt::Opaque"** %0, align 8, !nonnull !3
  br label %bb2

bb2:                                              ; preds = %bb1
  %5 = bitcast { i8*, i64* }* %2 to %"core::fmt::Opaque"**
  store %"core::fmt::Opaque"* %_5, %"core::fmt::Opaque"** %5, align 8
  %6 = getelementptr inbounds { i8*, i64* }, { i8*, i64* }* %2, i32 0, i32 1
  %7 = bitcast i64** %6 to i1 (%"core::fmt::Opaque"*, %"std::fmt::Formatter"*)**
  store i1 (%"core::fmt::Opaque"*, %"std::fmt::Formatter"*)* %_3, i1 (%"core::fmt::Opaque"*, %"std::fmt::Formatter"*)** %7, align 8
  %8 = getelementptr inbounds { i8*, i64* }, { i8*, i64* }* %2, i32 0, i32 0
  %9 = load i8*, i8** %8, align 8, !nonnull !3
  %10 = getelementptr inbounds { i8*, i64* }, { i8*, i64* }* %2, i32 0, i32 1
  %11 = load i64*, i64** %10, align 8, !nonnull !3
  %12 = insertvalue { i8*, i64* } undef, i8* %9, 0
  %13 = insertvalue { i8*, i64* } %12, i64* %11, 1
  ret { i8*, i64* } %13
}

; core::fmt::Arguments::new_v1
; Function Attrs: inlinehint nonlazybind uwtable
define internal void @_ZN4core3fmt9Arguments6new_v117hbc254e53308af3f1E(%"std::fmt::Arguments"* noalias nocapture sret(%"std::fmt::Arguments") dereferenceable(48) %0, [0 x { [0 x i8]*, i64 }]* nonnull align 8 %pieces.0, i64 %pieces.1, [0 x { i8*, i64* }]* nonnull align 8 %args.0, i64 %args.1) unnamed_addr #2 {
start:
  %_4 = alloca { i64*, i64 }, align 8
  %1 = bitcast { i64*, i64 }* %_4 to {}**
  store {}* null, {}** %1, align 8
  %2 = bitcast %"std::fmt::Arguments"* %0 to { [0 x { [0 x i8]*, i64 }]*, i64 }*
  %3 = getelementptr inbounds { [0 x { [0 x i8]*, i64 }]*, i64 }, { [0 x { [0 x i8]*, i64 }]*, i64 }* %2, i32 0, i32 0
  store [0 x { [0 x i8]*, i64 }]* %pieces.0, [0 x { [0 x i8]*, i64 }]** %3, align 8
  %4 = getelementptr inbounds { [0 x { [0 x i8]*, i64 }]*, i64 }, { [0 x { [0 x i8]*, i64 }]*, i64 }* %2, i32 0, i32 1
  store i64 %pieces.1, i64* %4, align 8
  %5 = getelementptr inbounds %"std::fmt::Arguments", %"std::fmt::Arguments"* %0, i32 0, i32 3
  %6 = getelementptr inbounds { i64*, i64 }, { i64*, i64 }* %_4, i32 0, i32 0
  %7 = load i64*, i64** %6, align 8
  %8 = getelementptr inbounds { i64*, i64 }, { i64*, i64 }* %_4, i32 0, i32 1
  %9 = load i64, i64* %8, align 8
  %10 = getelementptr inbounds { i64*, i64 }, { i64*, i64 }* %5, i32 0, i32 0
  store i64* %7, i64** %10, align 8
  %11 = getelementptr inbounds { i64*, i64 }, { i64*, i64 }* %5, i32 0, i32 1
  store i64 %9, i64* %11, align 8
  %12 = getelementptr inbounds %"std::fmt::Arguments", %"std::fmt::Arguments"* %0, i32 0, i32 5
  %13 = getelementptr inbounds { [0 x { i8*, i64* }]*, i64 }, { [0 x { i8*, i64* }]*, i64 }* %12, i32 0, i32 0
  store [0 x { i8*, i64* }]* %args.0, [0 x { i8*, i64* }]** %13, align 8
  %14 = getelementptr inbounds { [0 x { i8*, i64* }]*, i64 }, { [0 x { i8*, i64* }]*, i64 }* %12, i32 0, i32 1
  store i64 %args.1, i64* %14, align 8
  ret void
}

; core::ops::function::FnOnce::call_once{{vtable.shim}}
; Function Attrs: inlinehint nonlazybind uwtable
define internal i32 @"_ZN4core3ops8function6FnOnce40call_once$u7b$$u7b$vtable.shim$u7d$$u7d$17h427fda46e047ab3fE"(i64** %_1) unnamed_addr #2 {
start:
  %_2 = alloca {}, align 1
  %0 = load i64*, i64** %_1, align 8, !nonnull !3
; call core::ops::function::FnOnce::call_once
  %1 = call i32 @_ZN4core3ops8function6FnOnce9call_once17h6d085b1e9e553839E(i64* nonnull %0)
  br label %bb1

bb1:                                              ; preds = %start
  ret i32 %1
}

; core::ops::function::FnOnce::call_once
; Function Attrs: inlinehint nonlazybind uwtable
define internal i32 @_ZN4core3ops8function6FnOnce9call_once17h6d085b1e9e553839E(i64* nonnull %0) unnamed_addr #2 personality i32 (i32, i32, i64, %"unwind::libunwind::_Unwind_Exception"*, %"unwind::libunwind::_Unwind_Context"*)* @rust_eh_personality {
start:
  %1 = alloca { i8*, i32 }, align 8
  %_2 = alloca {}, align 1
  %_1 = alloca i64*, align 8
  store i64* %0, i64** %_1, align 8
; invoke std::rt::lang_start::{{closure}}
  %2 = invoke i32 @"_ZN3std2rt10lang_start28_$u7b$$u7b$closure$u7d$$u7d$17hce1a25dfefc4f916E"(i64** align 8 dereferenceable(8) %_1)
          to label %bb1 unwind label %cleanup

bb1:                                              ; preds = %start
  br label %bb2

bb2:                                              ; preds = %bb1
  ret i32 %2

bb3:                                              ; preds = %cleanup
  br label %bb4

bb4:                                              ; preds = %bb3
  %3 = bitcast { i8*, i32 }* %1 to i8**
  %4 = load i8*, i8** %3, align 8
  %5 = getelementptr inbounds { i8*, i32 }, { i8*, i32 }* %1, i32 0, i32 1
  %6 = load i32, i32* %5, align 8
  %7 = insertvalue { i8*, i32 } undef, i8* %4, 0
  %8 = insertvalue { i8*, i32 } %7, i32 %6, 1
  resume { i8*, i32 } %8

cleanup:                                          ; preds = %start
  %9 = landingpad { i8*, i32 }
          cleanup
  %10 = extractvalue { i8*, i32 } %9, 0
  %11 = extractvalue { i8*, i32 } %9, 1
  %12 = getelementptr inbounds { i8*, i32 }, { i8*, i32 }* %1, i32 0, i32 0
  store i8* %10, i8** %12, align 8
  %13 = getelementptr inbounds { i8*, i32 }, { i8*, i32 }* %1, i32 0, i32 1
  store i32 %11, i32* %13, align 8
  br label %bb3
}

; core::ops::function::FnOnce::call_once
; Function Attrs: inlinehint nonlazybind uwtable
define internal void @_ZN4core3ops8function6FnOnce9call_once17hfa3234c194bf7715E(void ()* nonnull %_1) unnamed_addr #2 {
start:
  %_2 = alloca {}, align 1
  call void %_1()
  br label %bb1

bb1:                                              ; preds = %start
  ret void
}

; core::ptr::drop_in_place<std::rt::lang_start<()>::{{closure}}>
; Function Attrs: inlinehint nonlazybind uwtable
define internal void @"_ZN4core3ptr85drop_in_place$LT$std..rt..lang_start$LT$$LP$$RP$$GT$..$u7b$$u7b$closure$u7d$$u7d$$GT$17he9c53e06c5d4b711E"(i64** %_1) unnamed_addr #2 {
start:
  ret void
}

; core::hint::black_box
; Function Attrs: inlinehint nonlazybind uwtable
define internal void @_ZN4core4hint9black_box17hd3ed79ea75a8b07eE() unnamed_addr #2 {
start:
  %dummy = alloca {}, align 1
  call void asm sideeffect "", "r,~{memory},~{dirflag},~{fpsr},~{flags}"({}* %dummy), !srcloc !4
  ret void
}

; <() as std::process::Termination>::report
; Function Attrs: inlinehint nonlazybind uwtable
define internal i32 @"_ZN54_$LT$$LP$$RP$$u20$as$u20$std..process..Termination$GT$6report17h748f98991ea520fbE"() unnamed_addr #2 {
start:
; call <std::process::ExitCode as std::process::Termination>::report
  %0 = call i32 @"_ZN68_$LT$std..process..ExitCode$u20$as$u20$std..process..Termination$GT$6report17hb180ac84f66f1626E"(i8 0)
  br label %bb1

bb1:                                              ; preds = %start
  ret i32 %0
}

; <std::process::ExitCode as std::process::Termination>::report
; Function Attrs: inlinehint nonlazybind uwtable
define internal i32 @"_ZN68_$LT$std..process..ExitCode$u20$as$u20$std..process..Termination$GT$6report17hb180ac84f66f1626E"(i8 %0) unnamed_addr #2 {
start:
  %self = alloca i8, align 1
  store i8 %0, i8* %self, align 1
; call std::sys::unix::process::process_common::ExitCode::as_i32
  %1 = call i32 @_ZN3std3sys4unix7process14process_common8ExitCode6as_i3217h1fd9089b36ba6b87E(i8* align 1 dereferenceable(1) %self)
  br label %bb1

bb1:                                              ; preds = %start
  ret i32 %1
}

; main::main
; Function Attrs: nonlazybind uwtable
define internal void @_ZN4main4main17hd37b685de13e672bE() unnamed_addr #1 {
start:
  %_15 = alloca i32*, align 8
  %_14 = alloca [1 x { i8*, i64* }], align 8
  %_7 = alloca %"std::fmt::Arguments", align 8
  %suma = alloca i32, align 4
; call main::sum
  %0 = call i32 @_ZN4main3sum17h5513f1a33834364dE(i32 1, i32 -5)
  store i32 %0, i32* %suma, align 4
  br label %bb1

bb1:                                              ; preds = %start
  store i32* %suma, i32** %_15, align 8
  %arg0 = load i32*, i32** %_15, align 8, !nonnull !3
; call core::fmt::ArgumentV1::new
  %1 = call { i8*, i64* } @_ZN4core3fmt10ArgumentV13new17h27664d64daba7afaE(i32* align 4 dereferenceable(4) %arg0, i1 (i32*, %"std::fmt::Formatter"*)* nonnull @"_ZN4core3fmt3num3imp52_$LT$impl$u20$core..fmt..Display$u20$for$u20$i32$GT$3fmt17h20e6963b3fedd574E")
  %_18.0 = extractvalue { i8*, i64* } %1, 0
  %_18.1 = extractvalue { i8*, i64* } %1, 1
  br label %bb2

bb2:                                              ; preds = %bb1
  %2 = bitcast [1 x { i8*, i64* }]* %_14 to { i8*, i64* }*
  %3 = getelementptr inbounds { i8*, i64* }, { i8*, i64* }* %2, i32 0, i32 0
  store i8* %_18.0, i8** %3, align 8
  %4 = getelementptr inbounds { i8*, i64* }, { i8*, i64* }* %2, i32 0, i32 1
  store i64* %_18.1, i64** %4, align 8
  %_11.0 = bitcast [1 x { i8*, i64* }]* %_14 to [0 x { i8*, i64* }]*
; call core::fmt::Arguments::new_v1
  call void @_ZN4core3fmt9Arguments6new_v117hbc254e53308af3f1E(%"std::fmt::Arguments"* noalias nocapture sret(%"std::fmt::Arguments") dereferenceable(48) %_7, [0 x { [0 x i8]*, i64 }]* nonnull align 8 bitcast (<{ i8*, [8 x i8], i8*, [8 x i8] }>* @alloc2 to [0 x { [0 x i8]*, i64 }]*), i64 2, [0 x { i8*, i64* }]* nonnull align 8 %_11.0, i64 1)
  br label %bb3

bb3:                                              ; preds = %bb2
; call std::io::stdio::_print
  call void @_ZN3std2io5stdio6_print17hba4b49e577d6009bE(%"std::fmt::Arguments"* noalias nocapture dereferenceable(48) %_7)
  br label %bb4

bb4:                                              ; preds = %bb3
  ret void
}

; main::sum
; Function Attrs: nonlazybind uwtable
define internal i32 @_ZN4main3sum17h5513f1a33834364dE(i32 %a, i32 %b) unnamed_addr #1 {
start:
  %0 = call { i32, i1 } @llvm.sadd.with.overflow.i32(i32 %a, i32 %b)
  %_5.0 = extractvalue { i32, i1 } %0, 0
  %_5.1 = extractvalue { i32, i1 } %0, 1
  %1 = call i1 @llvm.expect.i1(i1 %_5.1, i1 false)
  br i1 %1, label %panic, label %bb1

bb1:                                              ; preds = %start
  ret i32 %_5.0

panic:                                            ; preds = %start
; call core::panicking::panic
  call void @_ZN4core9panicking5panic17h3de4db67bd397eb3E([0 x i8]* nonnull align 1 bitcast ([28 x i8]* @str.1 to [0 x i8]*), i64 28, %"std::panic::Location"* align 8 dereferenceable(24) bitcast (<{ i8*, [16 x i8] }>* @alloc30 to %"std::panic::Location"*))
  unreachable
}

; Function Attrs: nounwind nonlazybind uwtable
declare i32 @rust_eh_personality(i32, i32, i64, %"unwind::libunwind::_Unwind_Exception"*, %"unwind::libunwind::_Unwind_Context"*) unnamed_addr #3

; std::rt::lang_start_internal
; Function Attrs: nonlazybind uwtable
declare i64 @_ZN3std2rt19lang_start_internal17hab5a8a909af4f90eE({}* nonnull align 1, [3 x i64]* align 8 dereferenceable(24), i64, i8**) unnamed_addr #1

; core::fmt::num::imp::<impl core::fmt::Display for i32>::fmt
; Function Attrs: nonlazybind uwtable
declare zeroext i1 @"_ZN4core3fmt3num3imp52_$LT$impl$u20$core..fmt..Display$u20$for$u20$i32$GT$3fmt17h20e6963b3fedd574E"(i32* align 4 dereferenceable(4), %"std::fmt::Formatter"* align 8 dereferenceable(64)) unnamed_addr #1

; std::io::stdio::_print
; Function Attrs: nonlazybind uwtable
declare void @_ZN3std2io5stdio6_print17hba4b49e577d6009bE(%"std::fmt::Arguments"* noalias nocapture dereferenceable(48)) unnamed_addr #1

; Function Attrs: nofree nosync nounwind readnone speculatable willreturn
declare { i32, i1 } @llvm.sadd.with.overflow.i32(i32, i32) #4

; Function Attrs: nofree nosync nounwind readnone willreturn
declare i1 @llvm.expect.i1(i1, i1) #5

; core::panicking::panic
; Function Attrs: cold noinline noreturn nonlazybind uwtable
declare void @_ZN4core9panicking5panic17h3de4db67bd397eb3E([0 x i8]* nonnull align 1, i64, %"std::panic::Location"* align 8 dereferenceable(24)) unnamed_addr #6

; Function Attrs: nonlazybind
define i32 @main(i32 %0, i8** %1) unnamed_addr #7 {
top:
  %2 = sext i32 %0 to i64
; call std::rt::lang_start
  %3 = call i64 @_ZN3std2rt10lang_start17h358cf2a9c1254586E(void ()* @_ZN4main4main17hd37b685de13e672bE, i64 %2, i8** %1)
  %4 = trunc i64 %3 to i32
  ret i32 %4
}

attributes #0 = { noinline nonlazybind uwtable "probe-stack"="inline-asm" "target-cpu"="x86-64" }
attributes #1 = { nonlazybind uwtable "probe-stack"="inline-asm" "target-cpu"="x86-64" }
attributes #2 = { inlinehint nonlazybind uwtable "probe-stack"="inline-asm" "target-cpu"="x86-64" }
attributes #3 = { nounwind nonlazybind uwtable "probe-stack"="inline-asm" "target-cpu"="x86-64" }
attributes #4 = { nofree nosync nounwind readnone speculatable willreturn }
attributes #5 = { nofree nosync nounwind readnone willreturn }
attributes #6 = { cold noinline noreturn nonlazybind uwtable "probe-stack"="inline-asm" "target-cpu"="x86-64" }
attributes #7 = { nonlazybind "target-cpu"="x86-64" }

!llvm.module.flags = !{!0, !1, !2}

!0 = !{i32 7, !"PIC Level", i32 2}
!1 = !{i32 7, !"PIE Level", i32 2}
!2 = !{i32 2, !"RtLibUseGOT", i32 1}
!3 = !{}
!4 = !{i32 2864166}
